; ModuleID = '42/726.c'
source_filename = "42/726.c"
target datalayout = "e-m:e-p270:32:32-p271:32:32-p272:64:64-i64:64-f80:128-n8:16:32:64-S128"
target triple = "x86_64-pc-linux-gnu"

@.str = private unnamed_addr constant [3 x i8] c"%d\00", align 1
@.str.1 = private unnamed_addr constant [4 x i8] c" %d\00", align 1

; Function Attrs: noinline nounwind uwtable
define dso_local void @main() #0 {
  %1 = alloca i32, align 4
  %2 = alloca i32, align 4
  %3 = alloca i32, align 4
  %4 = alloca i32, align 4
  %5 = alloca i32, align 4
  %6 = alloca i32*, align 8
  %7 = alloca i32*, align 8
  %8 = alloca i32*, align 8
  %9 = call noalias i8* @malloc(i64 400000) #3
  %10 = bitcast i8* %9 to i32*
  store i32* %10, i32** %6, align 8
  store i32 0, i32* %5, align 4
  %11 = call i32 (i8*, ...) @__isoc99_scanf(i8* getelementptr inbounds ([3 x i8], [3 x i8]* @.str, i64 0, i64 0), i32* %1)
  store i32 0, i32* %3, align 4
  br label %12

12:                                               ; preds = %23, %0
  %13 = load i32, i32* %3, align 4
  %14 = load i32, i32* %1, align 4
  %15 = icmp slt i32 %13, %14
  br i1 %15, label %16, label %26

16:                                               ; preds = %12
  %17 = call i32 (i8*, ...) @__isoc99_scanf(i8* getelementptr inbounds ([3 x i8], [3 x i8]* @.str, i64 0, i64 0), i32* %2)
  %18 = load i32, i32* %2, align 4
  %19 = load i32*, i32** %6, align 8
  %20 = load i32, i32* %3, align 4
  %21 = sext i32 %20 to i64
  %22 = getelementptr inbounds i32, i32* %19, i64 %21
  store i32 %18, i32* %22, align 4
  br label %23

23:                                               ; preds = %16
  %24 = load i32, i32* %3, align 4
  %25 = add nsw i32 %24, 1
  store i32 %25, i32* %3, align 4
  br label %12

26:                                               ; preds = %12
  %27 = load i32*, i32** %6, align 8
  store i32* %27, i32** %7, align 8
  %28 = call i32 (i8*, ...) @__isoc99_scanf(i8* getelementptr inbounds ([3 x i8], [3 x i8]* @.str, i64 0, i64 0), i32* %4)
  store i32 0, i32* %3, align 4
  br label %29

29:                                               ; preds = %67, %26
  %30 = load i32, i32* %3, align 4
  %31 = load i32, i32* %1, align 4
  %32 = icmp slt i32 %30, %31
  br i1 %32, label %33, label %68

33:                                               ; preds = %29
  %34 = load i32*, i32** %7, align 8
  %35 = load i32, i32* %34, align 4
  %36 = load i32, i32* %4, align 4
  %37 = icmp eq i32 %35, %36
  br i1 %37, label %38, label %62

38:                                               ; preds = %33
  %39 = load i32*, i32** %7, align 8
  store i32* %39, i32** %8, align 8
  br label %40

40:                                               ; preds = %56, %38
  %41 = load i32*, i32** %8, align 8
  %42 = load i32*, i32** %7, align 8
  %43 = load i32, i32* %1, align 4
  %44 = sext i32 %43 to i64
  %45 = getelementptr inbounds i32, i32* %42, i64 %44
  %46 = load i32, i32* %3, align 4
  %47 = sext i32 %46 to i64
  %48 = sub i64 0, %47
  %49 = getelementptr inbounds i32, i32* %45, i64 %48
  %50 = icmp ult i32* %41, %49
  br i1 %50, label %51, label %59

51:                                               ; preds = %40
  %52 = load i32*, i32** %8, align 8
  %53 = getelementptr inbounds i32, i32* %52, i64 1
  %54 = load i32, i32* %53, align 4
  %55 = load i32*, i32** %8, align 8
  store i32 %54, i32* %55, align 4
  br label %56

56:                                               ; preds = %51
  %57 = load i32*, i32** %8, align 8
  %58 = getelementptr inbounds i32, i32* %57, i32 1
  store i32* %58, i32** %8, align 8
  br label %40

59:                                               ; preds = %40
  %60 = load i32, i32* %5, align 4
  %61 = add nsw i32 %60, 1
  store i32 %61, i32* %5, align 4
  br label %67

62:                                               ; preds = %33
  %63 = load i32, i32* %3, align 4
  %64 = add nsw i32 %63, 1
  store i32 %64, i32* %3, align 4
  %65 = load i32*, i32** %7, align 8
  %66 = getelementptr inbounds i32, i32* %65, i32 1
  store i32* %66, i32** %7, align 8
  br label %67

67:                                               ; preds = %62, %59
  br label %29

68:                                               ; preds = %29
  %69 = load i32*, i32** %6, align 8
  store i32* %69, i32** %7, align 8
  %70 = load i32*, i32** %7, align 8
  %71 = load i32, i32* %70, align 4
  %72 = call i32 (i8*, ...) @printf(i8* getelementptr inbounds ([3 x i8], [3 x i8]* @.str, i64 0, i64 0), i32 %71)
  %73 = load i32*, i32** %7, align 8
  %74 = getelementptr inbounds i32, i32* %73, i32 1
  store i32* %74, i32** %7, align 8
  store i32 1, i32* %3, align 4
  br label %75

75:                                               ; preds = %85, %68
  %76 = load i32, i32* %3, align 4
  %77 = load i32, i32* %1, align 4
  %78 = load i32, i32* %5, align 4
  %79 = sub nsw i32 %77, %78
  %80 = icmp slt i32 %76, %79
  br i1 %80, label %81, label %90

81:                                               ; preds = %75
  %82 = load i32*, i32** %7, align 8
  %83 = load i32, i32* %82, align 4
  %84 = call i32 (i8*, ...) @printf(i8* getelementptr inbounds ([4 x i8], [4 x i8]* @.str.1, i64 0, i64 0), i32 %83)
  br label %85

85:                                               ; preds = %81
  %86 = load i32, i32* %3, align 4
  %87 = add nsw i32 %86, 1
  store i32 %87, i32* %3, align 4
  %88 = load i32*, i32** %7, align 8
  %89 = getelementptr inbounds i32, i32* %88, i32 1
  store i32* %89, i32** %7, align 8
  br label %75

90:                                               ; preds = %75
  ret void
}

; Function Attrs: nounwind
declare dso_local noalias i8* @malloc(i64) #1

declare dso_local i32 @__isoc99_scanf(i8*, ...) #2

declare dso_local i32 @printf(i8*, ...) #2


!llvm.module.flags = !{!0}
!llvm.ident = !{!1}

!0 = !{i32 1, !"wchar_size", i32 4}
!1 = !{!"clang version 10.0.0-4ubuntu1 "}
